; ModuleID = '40/1552.c'
source_filename = "40/1552.c"
target datalayout = "e-m:e-p270:32:32-p271:32:32-p272:64:64-i64:64-f80:128-n8:16:32:64-S128"
target triple = "x86_64-pc-linux-gnu"

@.str = private unnamed_addr constant [16 x i8] c"%lf%lf%lf%lf%lf\00", align 1
@.str.1 = private unnamed_addr constant [15 x i8] c"Invalid input\0A\00", align 1
@.str.2 = private unnamed_addr constant [6 x i8] c"%.4f\0A\00", align 1

; Function Attrs: noinline nounwind uwtable
define dso_local i32 @main() #0 {
  %1 = alloca i32, align 4
  %2 = alloca double, align 8
  %3 = alloca double, align 8
  %4 = alloca double, align 8
  %5 = alloca double, align 8
  %6 = alloca double, align 8
  %7 = alloca double, align 8
  %8 = alloca double, align 8
  %9 = alloca double, align 8
  store i32 0, i32* %1, align 4
  store double 0.000000e+00, double* %7, align 8
  store double 0.000000e+00, double* %9, align 8
  store double 0.000000e+00, double* %8, align 8
  %10 = call i32 (i8*, ...) @__isoc99_scanf(i8* getelementptr inbounds ([16 x i8], [16 x i8]* @.str, i64 0, i64 0), double* %2, double* %3, double* %4, double* %5, double* %6)
  %11 = load double, double* %6, align 8
  %12 = fcmp ogt double %11, 0.000000e+00
  br i1 %12, label %13, label %62

13:                                               ; preds = %0
  %14 = load double, double* %6, align 8
  %15 = fcmp olt double %14, 3.600000e+02
  br i1 %15, label %16, label %62

16:                                               ; preds = %13
  %17 = load double, double* %6, align 8
  %18 = fdiv double %17, 3.600000e+02
  %19 = fmul double %18, 2.000000e+00
  %20 = fmul double %19, 1.000000e+02
  store double %20, double* %6, align 8
  %21 = load double, double* %2, align 8
  %22 = load double, double* %3, align 8
  %23 = fadd double %21, %22
  %24 = load double, double* %4, align 8
  %25 = fadd double %23, %24
  %26 = load double, double* %5, align 8
  %27 = fadd double %25, %26
  %28 = fdiv double %27, 2.000000e+00
  store double %28, double* %9, align 8
  %29 = load double, double* %9, align 8
  %30 = load double, double* %2, align 8
  %31 = fsub double %29, %30
  %32 = load double, double* %9, align 8
  %33 = load double, double* %3, align 8
  %34 = fsub double %32, %33
  %35 = fmul double %31, %34
  %36 = load double, double* %9, align 8
  %37 = load double, double* %4, align 8
  %38 = fsub double %36, %37
  %39 = fmul double %35, %38
  %40 = load double, double* %9, align 8
  %41 = load double, double* %5, align 8
  %42 = fsub double %40, %41
  %43 = fmul double %39, %42
  %44 = load double, double* %2, align 8
  %45 = load double, double* %3, align 8
  %46 = fmul double %44, %45
  %47 = load double, double* %4, align 8
  %48 = fmul double %46, %47
  %49 = load double, double* %5, align 8
  %50 = fmul double %48, %49
  %51 = load double, double* %6, align 8
  %52 = fdiv double %51, 2.000000e+00
  %53 = call double @cos(double %52) #3
  %54 = fmul double %50, %53
  %55 = load double, double* %6, align 8
  %56 = fdiv double %55, 2.000000e+00
  %57 = call double @cos(double %56) #3
  %58 = fmul double %54, %57
  %59 = fsub double %43, %58
  store double %59, double* %8, align 8
  %60 = load double, double* %8, align 8
  %61 = call double @sqrt(double %60) #3
  store double %61, double* %7, align 8
  br label %62

62:                                               ; preds = %16, %13, %0
  %63 = load double, double* %8, align 8
  %64 = fcmp olt double %63, 0.000000e+00
  br i1 %64, label %65, label %67

65:                                               ; preds = %62
  %66 = call i32 (i8*, ...) @printf(i8* getelementptr inbounds ([15 x i8], [15 x i8]* @.str.1, i64 0, i64 0))
  br label %70

67:                                               ; preds = %62
  %68 = load double, double* %7, align 8
  %69 = call i32 (i8*, ...) @printf(i8* getelementptr inbounds ([6 x i8], [6 x i8]* @.str.2, i64 0, i64 0), double %68)
  br label %70

70:                                               ; preds = %67, %65
  ret i32 0
}

declare dso_local i32 @__isoc99_scanf(i8*, ...) #1

; Function Attrs: nounwind
declare dso_local double @cos(double) #2

; Function Attrs: nounwind
declare dso_local double @sqrt(double) #2

declare dso_local i32 @printf(i8*, ...) #1


!llvm.module.flags = !{!0}
!llvm.ident = !{!1}

!0 = !{i32 1, !"wchar_size", i32 4}
!1 = !{!"clang version 10.0.0-4ubuntu1 "}
