; ModuleID = 'source-C-CXX/39/1552.c'
source_filename = "source-C-CXX/39/1552.c"
target datalayout = "e-m:e-p270:32:32-p271:32:32-p272:64:64-i64:64-f80:128-n8:16:32:64-S128"
target triple = "x86_64-pc-linux-gnu"

@.str = private unnamed_addr constant [16 x i8] c"%lf%lf%lf%lf%lf\00", align 1
@.str.2 = private unnamed_addr constant [6 x i8] c"%.4f\0A\00", align 1
@str = private unnamed_addr constant [14 x i8] c"Invalid input\00", align 1

; Function Attrs: nofree nounwind sspstrong uwtable
define dso_local i32 @main() local_unnamed_addr #0 {
  %1 = alloca double, align 8
  %2 = alloca double, align 8
  %3 = alloca double, align 8
  %4 = alloca double, align 8
  %5 = alloca double, align 8
  %6 = bitcast double* %1 to i8*
  call void @llvm.lifetime.start.p0i8(i64 8, i8* nonnull %6) #5
  %7 = bitcast double* %2 to i8*
  call void @llvm.lifetime.start.p0i8(i64 8, i8* nonnull %7) #5
  %8 = bitcast double* %3 to i8*
  call void @llvm.lifetime.start.p0i8(i64 8, i8* nonnull %8) #5
  %9 = bitcast double* %4 to i8*
  call void @llvm.lifetime.start.p0i8(i64 8, i8* nonnull %9) #5
  %10 = bitcast double* %5 to i8*
  call void @llvm.lifetime.start.p0i8(i64 8, i8* nonnull %10) #5
  %11 = call i32 (i8*, ...) @__isoc99_scanf(i8* getelementptr inbounds ([16 x i8], [16 x i8]* @.str, i64 0, i64 0), double* nonnull %1, double* nonnull %2, double* nonnull %3, double* nonnull %4, double* nonnull %5)
  %12 = load double, double* %5, align 8, !tbaa !5
  %13 = fcmp ogt double %12, 0.000000e+00
  %14 = fcmp olt double %12, 3.600000e+02
  %15 = and i1 %13, %14
  br i1 %15, label %16, label %50

16:                                               ; preds = %0
  %17 = fdiv double %12, 3.600000e+02
  %18 = fmul double %17, 2.000000e+00
  %19 = fmul double %18, 1.000000e+02
  store double %19, double* %5, align 8, !tbaa !5
  %20 = load double, double* %1, align 8, !tbaa !5
  %21 = load double, double* %2, align 8, !tbaa !5
  %22 = fadd double %20, %21
  %23 = load double, double* %3, align 8, !tbaa !5
  %24 = fadd double %22, %23
  %25 = load double, double* %4, align 8, !tbaa !5
  %26 = fadd double %24, %25
  %27 = fmul double %26, 5.000000e-01
  %28 = fsub double %27, %20
  %29 = fsub double %27, %21
  %30 = fmul double %28, %29
  %31 = fsub double %27, %23
  %32 = fmul double %31, %30
  %33 = fsub double %27, %25
  %34 = fmul double %33, %32
  %35 = fmul double %20, %21
  %36 = fmul double %35, %23
  %37 = fmul double %36, %25
  %38 = fmul double %19, 5.000000e-01
  %39 = call double @cos(double %38) #5
  %40 = fmul double %37, %39
  %41 = load double, double* %5, align 8, !tbaa !5
  %42 = fmul double %41, 5.000000e-01
  %43 = call double @cos(double %42) #5
  %44 = fmul double %40, %43
  %45 = fsub double %34, %44
  %46 = call double @sqrt(double %45) #5
  %47 = fcmp olt double %45, 0.000000e+00
  br i1 %47, label %48, label %50

48:                                               ; preds = %16
  %49 = call i32 @puts(i8* nonnull dereferenceable(1) getelementptr inbounds ([14 x i8], [14 x i8]* @str, i64 0, i64 0))
  br label %53

50:                                               ; preds = %0, %16
  %51 = phi double [ %46, %16 ], [ 0.000000e+00, %0 ]
  %52 = call i32 (i8*, ...) @printf(i8* nonnull dereferenceable(1) getelementptr inbounds ([6 x i8], [6 x i8]* @.str.2, i64 0, i64 0), double %51)
  br label %53

53:                                               ; preds = %50, %48
  call void @llvm.lifetime.end.p0i8(i64 8, i8* nonnull %10) #5
  call void @llvm.lifetime.end.p0i8(i64 8, i8* nonnull %9) #5
  call void @llvm.lifetime.end.p0i8(i64 8, i8* nonnull %8) #5
  call void @llvm.lifetime.end.p0i8(i64 8, i8* nonnull %7) #5
  call void @llvm.lifetime.end.p0i8(i64 8, i8* nonnull %6) #5
  ret i32 0
}

; Function Attrs: argmemonly mustprogress nofree nosync nounwind willreturn
declare void @llvm.lifetime.start.p0i8(i64 immarg, i8* nocapture) #1

; Function Attrs: nofree nounwind
declare noundef i32 @__isoc99_scanf(i8* nocapture noundef readonly, ...) local_unnamed_addr #2

; Function Attrs: mustprogress nofree nounwind willreturn
declare double @cos(double) local_unnamed_addr #3

; Function Attrs: mustprogress nofree nounwind willreturn
declare double @sqrt(double) local_unnamed_addr #3

; Function Attrs: nofree nounwind
declare noundef i32 @printf(i8* nocapture noundef readonly, ...) local_unnamed_addr #2

; Function Attrs: argmemonly mustprogress nofree nosync nounwind willreturn
declare void @llvm.lifetime.end.p0i8(i64 immarg, i8* nocapture) #1

; Function Attrs: nofree nounwind
declare noundef i32 @puts(i8* nocapture noundef readonly) local_unnamed_addr #4


!llvm.module.flags = !{!0, !1, !2, !3}
!llvm.ident = !{!4}

!0 = !{i32 1, !"wchar_size", i32 4}
!1 = !{i32 7, !"PIC Level", i32 2}
!2 = !{i32 7, !"PIE Level", i32 2}
!3 = !{i32 7, !"uwtable", i32 1}
!4 = !{!"clang version 13.0.0"}
!5 = !{!6, !6, i64 0}
!6 = !{!"double", !7, i64 0}
!7 = !{!"omnipotent char", !8, i64 0}
!8 = !{!"Simple C/C++ TBAA"}
